; Function Attrs: nounwind uwtable
define ptr @l___private_Lean_Server_FileWorker_Utils_0__Lean_Server_FileWorker_mkCmdSnaps_go(ptr noundef %0) #0 {
  %2 = ptrtoint ptr %0 to i64
  %3 = and i64 %2, 1
  %.not = icmp eq i64 %3, 0
  br i1 %.not, label %4, label %lean_inc.exit14

4:                                                ; preds = %1
  %.val.i = load i32, ptr %0, align 4, !tbaa !8
  %5 = icmp sgt i32 %.val.i, 0
  br i1 %5, label %6, label %8, !prof !11

6:                                                ; preds = %4
  %7 = add nuw i32 %.val.i, 1
  store i32 %7, ptr %0, align 4, !tbaa !8
  br label %lean_inc.exit14

8:                                                ; preds = %4
  %.not.i18 = icmp eq i32 %.val.i, 0
  br i1 %.not.i18, label %lean_inc.exit14, label %9

9:                                                ; preds = %8
  tail call void @lean_inc_ref_cold(ptr noundef nonnull %0) #4
  br label %lean_inc.exit14

lean_inc.exit14:                                  ; preds = %9, %8, %6, %1
  tail call void @lean_inc_heartbeat() #4
  %10 = tail call noalias ptr @mi_malloc_small(i64 noundef 32) #4
  %11 = icmp eq ptr %10, null
  br i1 %11, label %12, label %lean_alloc_closure.exit

12:                                               ; preds = %lean_inc.exit14
  tail call void @lean_internal_panic_out_of_memory() #5
  unreachable

lean_alloc_closure.exit:                          ; preds = %lean_inc.exit14
  %13 = getelementptr inbounds nuw i8, ptr %10, i64 4
  store i32 1, ptr %10, align 4, !tbaa !8
  store i32 -184549344, ptr %13, align 4
  %14 = getelementptr inbounds nuw i8, ptr %10, i64 8
  store ptr @l___private_Lean_Server_FileWorker_Utils_0__Lean_Server_FileWorker_mkCmdSnaps_go___lambda__1___boxed, ptr %14, align 8, !tbaa !4
  %15 = getelementptr inbounds nuw i8, ptr %10, i64 16
  store i16 2, ptr %15, align 8, !tbaa !12
  %16 = getelementptr inbounds nuw i8, ptr %10, i64 18
  store i16 1, ptr %16, align 2, !tbaa !12
  %17 = getelementptr inbounds nuw i8, ptr %10, i64 24
  store ptr %0, ptr %17, align 8, !tbaa !4
  %18 = getelementptr inbounds nuw i8, ptr %0, i64 40
  %19 = load ptr, ptr %18, align 8, !tbaa !4
  %20 = ptrtoint ptr %19 to i64
  %21 = and i64 %20, 1
  %.not25 = icmp eq i64 %21, 0
  br i1 %.not25, label %22, label %lean_inc.exit13

22:                                               ; preds = %lean_alloc_closure.exit
  %.val.i19 = load i32, ptr %19, align 4, !tbaa !8
  %23 = icmp sgt i32 %.val.i19, 0
  br i1 %23, label %24, label %26, !prof !11

24:                                               ; preds = %22
  %25 = add nuw i32 %.val.i19, 1
  store i32 %25, ptr %19, align 4, !tbaa !8
  br label %lean_inc.exit13

26:                                               ; preds = %22
  %.not.i20 = icmp eq i32 %.val.i19, 0
  br i1 %.not.i20, label %lean_inc.exit13, label %27

27:                                               ; preds = %26
  tail call void @lean_inc_ref_cold(ptr noundef nonnull %19) #4
  br label %lean_inc.exit13

lean_inc.exit13:                                  ; preds = %27, %26, %24, %lean_alloc_closure.exit
  br i1 %.not, label %28, label %lean_dec.exit15

28:                                               ; preds = %lean_inc.exit13
  %29 = load i32, ptr %0, align 4, !tbaa !8
  %30 = icmp sgt i32 %29, 1
  br i1 %30, label %31, label %33, !prof !11

31:                                               ; preds = %28
  %32 = add nsw i32 %29, -1
  store i32 %32, ptr %0, align 4, !tbaa !8
  br label %lean_dec.exit15

33:                                               ; preds = %28
  %.not.i = icmp eq i32 %29, 0
  br i1 %.not.i, label %lean_dec.exit15, label %34

34:                                               ; preds = %33
  tail call void @lean_dec_ref_cold(ptr noundef nonnull %0) #4
  br label %lean_dec.exit15

lean_dec.exit15:                                  ; preds = %34, %33, %31, %lean_inc.exit13
  %35 = getelementptr inbounds nuw i8, ptr %19, i64 32
  %36 = load ptr, ptr %35, align 8, !tbaa !4
  %37 = ptrtoint ptr %36 to i64
  %38 = and i64 %37, 1
  %.not26 = icmp eq i64 %38, 0
  br i1 %.not26, label %39, label %lean_inc.exit

39:                                               ; preds = %lean_dec.exit15
  %.val.i22 = load i32, ptr %36, align 4, !tbaa !8
  %40 = icmp sgt i32 %.val.i22, 0
  br i1 %40, label %41, label %43, !prof !11

41:                                               ; preds = %39
  %42 = add nuw i32 %.val.i22, 1
  store i32 %42, ptr %36, align 4, !tbaa !8
  br label %lean_inc.exit

43:                                               ; preds = %39
  %.not.i23 = icmp eq i32 %.val.i22, 0
  br i1 %.not.i23, label %lean_inc.exit, label %44

44:                                               ; preds = %43
  tail call void @lean_inc_ref_cold(ptr noundef nonnull %36) #4
  br label %lean_inc.exit

lean_inc.exit:                                    ; preds = %44, %43, %41, %lean_dec.exit15
  br i1 %.not25, label %45, label %lean_dec.exit

45:                                               ; preds = %lean_inc.exit
  %46 = load i32, ptr %19, align 4, !tbaa !8
  %47 = icmp sgt i32 %46, 1
  br i1 %47, label %48, label %50, !prof !11

48:                                               ; preds = %45
  %49 = add nsw i32 %46, -1
  store i32 %49, ptr %19, align 4, !tbaa !8
  br label %lean_dec.exit

50:                                               ; preds = %45
  %.not.i16 = icmp eq i32 %46, 0
  br i1 %.not.i16, label %lean_dec.exit, label %51

51:                                               ; preds = %50
  tail call void @lean_dec_ref_cold(ptr noundef nonnull %19) #4
  br label %lean_dec.exit

lean_dec.exit:                                    ; preds = %51, %50, %48, %lean_inc.exit
  %52 = load ptr, ptr @l_Task_Priority_default, align 8, !tbaa !4
  %53 = ptrtoint ptr %52 to i64
  %54 = lshr i64 %53, 1
  %55 = trunc i64 %54 to i32
  %56 = tail call ptr @lean_task_map_core(ptr noundef nonnull %10, ptr noundef %36, i32 noundef %55, i1 noundef zeroext true, i1 noundef zeroext false) #4
  ret ptr %56
}